; Function Attrs: mustprogress nounwind uwtable
define internal void @"_ZNSt17_Function_handlerIFvvEZZN4llvm13DWARFVerifier24verifyDebugInfoAttributeERKNS1_8DWARFDieERNS1_14DWARFAttributeEENK3$_0clENS1_9StringRefERKNS1_5TwineEEUlvE_E9_M_invokeERKSt9_Any_data"(ptr nocapture noundef nonnull readonly align 8 dereferenceable(16) %0) #0 align 2 {
  %.val = load ptr, ptr %0, align 8
  %2 = load ptr, ptr %.val, align 8
  %3 = load ptr, ptr %2, align 8
  %4 = tail call noundef nonnull align 8 dereferenceable(48) ptr @_ZN4llvm9WithColor5errorERNS_11raw_ostreamENS_9StringRefEb(ptr noundef nonnull align 8 dereferenceable(48) %3, ptr nonnull @.str.145, i64 0, i1 noundef zeroext false) #26
  %5 = getelementptr inbounds nuw i8, ptr %.val, i64 8
  %6 = load ptr, ptr %5, align 8
  tail call void @_ZNK4llvm5Twine5printERNS_11raw_ostreamE(ptr noundef nonnull align 8 dereferenceable(34) %6, ptr noundef nonnull align 8 dereferenceable(48) %4) #26
  %7 = getelementptr inbounds nuw i8, ptr %4, i64 32
  %8 = load ptr, ptr %7, align 8
  %9 = getelementptr inbounds nuw i8, ptr %4, i64 24
  %10 = load ptr, ptr %9, align 8
  %.not.i.i.i.i = icmp ult ptr %8, %10
  br i1 %.not.i.i.i.i, label %13, label %11

11:                                               ; preds = %1
  %12 = tail call noundef nonnull align 8 dereferenceable(48) ptr @_ZN4llvm11raw_ostream5writeEh(ptr noundef nonnull align 8 dereferenceable(48) %4, i8 noundef zeroext 10) #26
  br label %_ZN4llvm11raw_ostreamlsEc.exit.i.i.i

13:                                               ; preds = %1
  %14 = getelementptr inbounds i8, ptr %8, i64 1
  store ptr %14, ptr %7, align 8
  store i8 10, ptr %8, align 1
  br label %_ZN4llvm11raw_ostreamlsEc.exit.i.i.i

_ZN4llvm11raw_ostreamlsEc.exit.i.i.i:             ; preds = %13, %11
  %15 = getelementptr inbounds nuw i8, ptr %.val, i64 16
  %16 = load ptr, ptr %15, align 8
  %17 = tail call noundef nonnull align 8 dereferenceable(48) ptr @_ZNK4llvm13DWARFVerifier4dumpERKNS_8DWARFDieEj(ptr noundef nonnull align 8 dereferenceable(242) %2, ptr noundef nonnull align 8 dereferenceable(16) %16, i32 noundef 0)
  %18 = getelementptr inbounds nuw i8, ptr %17, i64 32
  %19 = load ptr, ptr %18, align 8
  %20 = getelementptr inbounds nuw i8, ptr %17, i64 24
  %21 = load ptr, ptr %20, align 8
  %.not.i1.i.i.i = icmp ult ptr %19, %21
  br i1 %.not.i1.i.i.i, label %24, label %22

22:                                               ; preds = %_ZN4llvm11raw_ostreamlsEc.exit.i.i.i
  %23 = tail call noundef nonnull align 8 dereferenceable(48) ptr @_ZN4llvm11raw_ostream5writeEh(ptr noundef nonnull align 8 dereferenceable(48) %17, i8 noundef zeroext 10) #26
  br label %"_ZSt10__invoke_rIvRZZN4llvm13DWARFVerifier24verifyDebugInfoAttributeERKNS0_8DWARFDieERNS0_14DWARFAttributeEENK3$_0clENS0_9StringRefERKNS0_5TwineEEUlvE_JEENSt9enable_ifIX16is_invocable_r_vIT_T0_DpT1_EESF_E4typeEOSG_DpOSH_.exit"

24:                                               ; preds = %_ZN4llvm11raw_ostreamlsEc.exit.i.i.i
  %25 = getelementptr inbounds i8, ptr %19, i64 1
  store ptr %25, ptr %18, align 8
  store i8 10, ptr %19, align 1
  br label %"_ZSt10__invoke_rIvRZZN4llvm13DWARFVerifier24verifyDebugInfoAttributeERKNS0_8DWARFDieERNS0_14DWARFAttributeEENK3$_0clENS0_9StringRefERKNS0_5TwineEEUlvE_JEENSt9enable_ifIX16is_invocable_r_vIT_T0_DpT1_EESF_E4typeEOSG_DpOSH_.exit"

"_ZSt10__invoke_rIvRZZN4llvm13DWARFVerifier24verifyDebugInfoAttributeERKNS0_8DWARFDieERNS0_14DWARFAttributeEENK3$_0clENS0_9StringRefERKNS0_5TwineEEUlvE_JEENSt9enable_ifIX16is_invocable_r_vIT_T0_DpT1_EESF_E4typeEOSG_DpOSH_.exit": ; preds = %22, %24
  ret void
}